target datalayout = "e-m:e-p270:32:32-p271:32:32-p272:64:64-i64:64-f80:128-n8:16:32:64-S128"
target triple = "x86_64-pc-linux-gnu"

@.str = private unnamed_addr constant [9 x i8] c"%d %s %d\00", align 1
@.str.1 = private unnamed_addr constant [3 x i8] c"%c\00", align 1
@.str.2 = private unnamed_addr constant [2 x i8] c"\0A\00", align 1

; Function Attrs: noinline nounwind uwtable
define dso_local i64 @num(i64 %0, i32 %1, i32 %2) #0 {
  %4 = alloca i64, align 8
  %5 = alloca i32, align 4
  %6 = alloca i32, align 4
  %7 = alloca i64, align 8
  %8 = alloca i32, align 4
  store i64 %0, i64* %4, align 8
  store i32 %1, i32* %5, align 4
  store i32 %2, i32* %6, align 4
  %9 = load i64, i64* %4, align 8
  store i64 %9, i64* %7, align 8
  store i32 0, i32* %8, align 4
  br label %10

10:                                               ; preds = %19, %3
  %11 = load i32, i32* %8, align 4
  %12 = load i32, i32* %5, align 4
  %13 = icmp slt i32 %11, %12
  br i1 %13, label %14, label %22

14:                                               ; preds = %10
  %15 = load i64, i64* %7, align 8
  %16 = load i32, i32* %6, align 4
  %17 = sext i32 %16 to i64
  %18 = mul nsw i64 %15, %17
  store i64 %18, i64* %7, align 8
  br label %19

19:                                               ; preds = %14
  %20 = load i32, i32* %8, align 4
  %21 = add nsw i32 %20, 1
  store i32 %21, i32* %8, align 4
  br label %10

22:                                               ; preds = %10
  %23 = load i64, i64* %7, align 8
  ret i64 %23
}

; Function Attrs: noinline nounwind uwtable
define dso_local void @main() #0 {
  %1 = alloca i32, align 4
  %2 = alloca i32, align 4
  %3 = alloca i32, align 4
  %4 = alloca i32, align 4
  %5 = alloca i32, align 4
  %6 = alloca [100 x i8], align 16
  %7 = alloca [100 x i8], align 16
  %8 = alloca i64, align 8
  %9 = alloca i64, align 8
  %10 = alloca i32, align 4
  %11 = alloca i32, align 4
  %12 = alloca i64, align 8
  %13 = getelementptr inbounds [100 x i8], [100 x i8]* %6, i64 0, i64 0
  %14 = call i32 (i8*, ...) @__isoc99_scanf(i8* getelementptr inbounds ([9 x i8], [9 x i8]* @.str, i64 0, i64 0), i32* %1, i8* %13, i32* %2)
  store i64 0, i64* %8, align 8
  %15 = getelementptr inbounds [100 x i8], [100 x i8]* %6, i64 0, i64 0
  %16 = call i64 @strlen(i8* %15) #3
  %17 = trunc i64 %16 to i32
  store i32 %17, i32* %5, align 4
  store i32 0, i32* %3, align 4
  br label %18

18:                                               ; preds = %119, %0
  %19 = load i32, i32* %3, align 4
  %20 = load i32, i32* %5, align 4
  %21 = sub nsw i32 %20, 1
  %22 = icmp slt i32 %19, %21
  br i1 %22, label %23, label %122

23:                                               ; preds = %18
  %24 = load i32, i32* %3, align 4
  %25 = sext i32 %24 to i64
  %26 = getelementptr inbounds [100 x i8], [100 x i8]* %6, i64 0, i64 %25
  %27 = load i8, i8* %26, align 1
  %28 = sext i8 %27 to i32
  %29 = icmp sge i32 %28, 65
  br i1 %29, label %30, label %55

30:                                               ; preds = %23
  %31 = load i32, i32* %3, align 4
  %32 = sext i32 %31 to i64
  %33 = getelementptr inbounds [100 x i8], [100 x i8]* %6, i64 0, i64 %32
  %34 = load i8, i8* %33, align 1
  %35 = sext i8 %34 to i32
  %36 = icmp sle i32 %35, 90
  br i1 %36, label %37, label %55

37:                                               ; preds = %30
  %38 = load i32, i32* %3, align 4
  %39 = sext i32 %38 to i64
  %40 = getelementptr inbounds [100 x i8], [100 x i8]* %6, i64 0, i64 %39
  %41 = load i8, i8* %40, align 1
  %42 = sext i8 %41 to i32
  %43 = sub nsw i32 %42, 65
  %44 = add nsw i32 %43, 10
  %45 = sext i32 %44 to i64
  store i64 %45, i64* %9, align 8
  %46 = load i64, i64* %8, align 8
  %47 = load i64, i64* %9, align 8
  %48 = load i32, i32* %5, align 4
  %49 = load i32, i32* %3, align 4
  %50 = sub nsw i32 %48, %49
  %51 = sub nsw i32 %50, 1
  %52 = load i32, i32* %1, align 4
  %53 = call i64 @num(i64 %47, i32 %51, i32 %52)
  %54 = add nsw i64 %46, %53
  store i64 %54, i64* %8, align 8
  br label %55

55:                                               ; preds = %37, %30, %23
  %56 = load i32, i32* %3, align 4
  %57 = sext i32 %56 to i64
  %58 = getelementptr inbounds [100 x i8], [100 x i8]* %6, i64 0, i64 %57
  %59 = load i8, i8* %58, align 1
  %60 = sext i8 %59 to i32
  %61 = icmp sge i32 %60, 48
  br i1 %61, label %62, label %86

62:                                               ; preds = %55
  %63 = load i32, i32* %3, align 4
  %64 = sext i32 %63 to i64
  %65 = getelementptr inbounds [100 x i8], [100 x i8]* %6, i64 0, i64 %64
  %66 = load i8, i8* %65, align 1
  %67 = sext i8 %66 to i32
  %68 = icmp sle i32 %67, 57
  br i1 %68, label %69, label %86

69:                                               ; preds = %62
  %70 = load i32, i32* %3, align 4
  %71 = sext i32 %70 to i64
  %72 = getelementptr inbounds [100 x i8], [100 x i8]* %6, i64 0, i64 %71
  %73 = load i8, i8* %72, align 1
  %74 = sext i8 %73 to i32
  %75 = sub nsw i32 %74, 48
  %76 = sext i32 %75 to i64
  store i64 %76, i64* %9, align 8
  %77 = load i64, i64* %8, align 8
  %78 = load i64, i64* %9, align 8
  %79 = load i32, i32* %5, align 4
  %80 = load i32, i32* %3, align 4
  %81 = sub nsw i32 %79, %80
  %82 = sub nsw i32 %81, 1
  %83 = load i32, i32* %1, align 4
  %84 = call i64 @num(i64 %78, i32 %82, i32 %83)
  %85 = add nsw i64 %77, %84
  store i64 %85, i64* %8, align 8
  br label %86

86:                                               ; preds = %69, %62, %55
  %87 = load i32, i32* %3, align 4
  %88 = sext i32 %87 to i64
  %89 = getelementptr inbounds [100 x i8], [100 x i8]* %6, i64 0, i64 %88
  %90 = load i8, i8* %89, align 1
  %91 = sext i8 %90 to i32
  %92 = icmp sge i32 %91, 97
  br i1 %92, label %93, label %118

93:                                               ; preds = %86
  %94 = load i32, i32* %3, align 4
  %95 = sext i32 %94 to i64
  %96 = getelementptr inbounds [100 x i8], [100 x i8]* %6, i64 0, i64 %95
  %97 = load i8, i8* %96, align 1
  %98 = sext i8 %97 to i32
  %99 = icmp sle i32 %98, 122
  br i1 %99, label %100, label %118

100:                                              ; preds = %93
  %101 = load i32, i32* %3, align 4
  %102 = sext i32 %101 to i64
  %103 = getelementptr inbounds [100 x i8], [100 x i8]* %6, i64 0, i64 %102
  %104 = load i8, i8* %103, align 1
  %105 = sext i8 %104 to i32
  %106 = sub nsw i32 %105, 97
  %107 = add nsw i32 %106, 10
  %108 = sext i32 %107 to i64
  store i64 %108, i64* %9, align 8
  %109 = load i64, i64* %8, align 8
  %110 = load i64, i64* %9, align 8
  %111 = load i32, i32* %5, align 4
  %112 = load i32, i32* %3, align 4
  %113 = sub nsw i32 %111, %112
  %114 = sub nsw i32 %113, 1
  %115 = load i32, i32* %1, align 4
  %116 = call i64 @num(i64 %110, i32 %114, i32 %115)
  %117 = add nsw i64 %109, %116
  store i64 %117, i64* %8, align 8
  br label %118

118:                                              ; preds = %100, %93, %86
  br label %119

119:                                              ; preds = %118
  %120 = load i32, i32* %3, align 4
  %121 = add nsw i32 %120, 1
  store i32 %121, i32* %3, align 4
  br label %18

122:                                              ; preds = %18
  %123 = load i32, i32* %5, align 4
  %124 = sub nsw i32 %123, 1
  %125 = sext i32 %124 to i64
  %126 = getelementptr inbounds [100 x i8], [100 x i8]* %6, i64 0, i64 %125
  %127 = load i8, i8* %126, align 1
  %128 = sext i8 %127 to i32
  %129 = icmp sge i32 %128, 65
  br i1 %129, label %130, label %149

130:                                              ; preds = %122
  %131 = load i32, i32* %5, align 4
  %132 = sub nsw i32 %131, 1
  %133 = sext i32 %132 to i64
  %134 = getelementptr inbounds [100 x i8], [100 x i8]* %6, i64 0, i64 %133
  %135 = load i8, i8* %134, align 1
  %136 = sext i8 %135 to i32
  %137 = icmp sle i32 %136, 90
  br i1 %137, label %138, label %149

138:                                              ; preds = %130
  %139 = load i64, i64* %8, align 8
  %140 = load i32, i32* %5, align 4
  %141 = sub nsw i32 %140, 1
  %142 = sext i32 %141 to i64
  %143 = getelementptr inbounds [100 x i8], [100 x i8]* %6, i64 0, i64 %142
  %144 = load i8, i8* %143, align 1
  %145 = sext i8 %144 to i64
  %146 = add nsw i64 %139, %145
  %147 = sub nsw i64 %146, 65
  %148 = add nsw i64 %147, 10
  store i64 %148, i64* %8, align 8
  br label %149

149:                                              ; preds = %138, %130, %122
  %150 = load i32, i32* %5, align 4
  %151 = sub nsw i32 %150, 1
  %152 = sext i32 %151 to i64
  %153 = getelementptr inbounds [100 x i8], [100 x i8]* %6, i64 0, i64 %152
  %154 = load i8, i8* %153, align 1
  %155 = sext i8 %154 to i32
  %156 = icmp sge i32 %155, 48
  br i1 %156, label %157, label %175

157:                                              ; preds = %149
  %158 = load i32, i32* %5, align 4
  %159 = sub nsw i32 %158, 1
  %160 = sext i32 %159 to i64
  %161 = getelementptr inbounds [100 x i8], [100 x i8]* %6, i64 0, i64 %160
  %162 = load i8, i8* %161, align 1
  %163 = sext i8 %162 to i32
  %164 = icmp sle i32 %163, 57
  br i1 %164, label %165, label %175

165:                                              ; preds = %157
  %166 = load i64, i64* %8, align 8
  %167 = load i32, i32* %5, align 4
  %168 = sub nsw i32 %167, 1
  %169 = sext i32 %168 to i64
  %170 = getelementptr inbounds [100 x i8], [100 x i8]* %6, i64 0, i64 %169
  %171 = load i8, i8* %170, align 1
  %172 = sext i8 %171 to i64
  %173 = add nsw i64 %166, %172
  %174 = sub nsw i64 %173, 48
  store i64 %174, i64* %8, align 8
  br label %175

175:                                              ; preds = %165, %157, %149
  %176 = load i32, i32* %5, align 4
  %177 = sub nsw i32 %176, 1
  %178 = sext i32 %177 to i64
  %179 = getelementptr inbounds [100 x i8], [100 x i8]* %6, i64 0, i64 %178
  %180 = load i8, i8* %179, align 1
  %181 = sext i8 %180 to i32
  %182 = icmp sge i32 %181, 97
  br i1 %182, label %183, label %202

183:                                              ; preds = %175
  %184 = load i32, i32* %5, align 4
  %185 = sub nsw i32 %184, 1
  %186 = sext i32 %185 to i64
  %187 = getelementptr inbounds [100 x i8], [100 x i8]* %6, i64 0, i64 %186
  %188 = load i8, i8* %187, align 1
  %189 = sext i8 %188 to i32
  %190 = icmp sle i32 %189, 122
  br i1 %190, label %191, label %202

191:                                              ; preds = %183
  %192 = load i64, i64* %8, align 8
  %193 = load i32, i32* %5, align 4
  %194 = sub nsw i32 %193, 1
  %195 = sext i32 %194 to i64
  %196 = getelementptr inbounds [100 x i8], [100 x i8]* %6, i64 0, i64 %195
  %197 = load i8, i8* %196, align 1
  %198 = sext i8 %197 to i64
  %199 = add nsw i64 %192, %198
  %200 = sub nsw i64 %199, 97
  %201 = add nsw i64 %200, 10
  store i64 %201, i64* %8, align 8
  br label %202

202:                                              ; preds = %191, %183, %175
  store i32 0, i32* %10, align 4
  %203 = load i64, i64* %8, align 8
  store i64 %203, i64* %12, align 8
  br label %204

204:                                              ; preds = %239, %202
  %205 = load i64, i64* %12, align 8
  %206 = load i32, i32* %2, align 4
  %207 = sext i32 %206 to i64
  %208 = srem i64 %205, %207
  %209 = trunc i64 %208 to i32
  store i32 %209, i32* %11, align 4
  %210 = load i32, i32* %11, align 4
  %211 = icmp sge i32 %210, 0
  br i1 %211, label %212, label %224

212:                                              ; preds = %204
  %213 = load i32, i32* %11, align 4
  %214 = icmp sle i32 %213, 9
  br i1 %214, label %215, label %224

215:                                              ; preds = %212
  %216 = load i32, i32* %11, align 4
  %217 = add nsw i32 %216, 48
  %218 = trunc i32 %217 to i8
  %219 = load i32, i32* %10, align 4
  %220 = sext i32 %219 to i64
  %221 = getelementptr inbounds [100 x i8], [100 x i8]* %7, i64 0, i64 %220
  store i8 %218, i8* %221, align 1
  %222 = load i32, i32* %10, align 4
  %223 = add nsw i32 %222, 1
  store i32 %223, i32* %10, align 4
  br label %234

224:                                              ; preds = %212, %204
  %225 = load i32, i32* %11, align 4
  %226 = sub nsw i32 %225, 10
  %227 = add nsw i32 %226, 65
  %228 = trunc i32 %227 to i8
  %229 = load i32, i32* %10, align 4
  %230 = sext i32 %229 to i64
  %231 = getelementptr inbounds [100 x i8], [100 x i8]* %7, i64 0, i64 %230
  store i8 %228, i8* %231, align 1
  %232 = load i32, i32* %10, align 4
  %233 = add nsw i32 %232, 1
  store i32 %233, i32* %10, align 4
  br label %234

234:                                              ; preds = %224, %215
  %235 = load i64, i64* %12, align 8
  %236 = load i32, i32* %2, align 4
  %237 = sext i32 %236 to i64
  %238 = sdiv i64 %235, %237
  store i64 %238, i64* %12, align 8
  br label %239

239:                                              ; preds = %234
  %240 = load i64, i64* %12, align 8
  %241 = icmp ne i64 %240, 0
  br i1 %241, label %204, label %242

242:                                              ; preds = %239
  %243 = load i32, i32* %10, align 4
  %244 = sub nsw i32 %243, 1
  store i32 %244, i32* %3, align 4
  br label %245

245:                                              ; preds = %255, %242
  %246 = load i32, i32* %3, align 4
  %247 = icmp sge i32 %246, 0
  br i1 %247, label %248, label %258

248:                                              ; preds = %245
  %249 = load i32, i32* %3, align 4
  %250 = sext i32 %249 to i64
  %251 = getelementptr inbounds [100 x i8], [100 x i8]* %7, i64 0, i64 %250
  %252 = load i8, i8* %251, align 1
  %253 = sext i8 %252 to i32
  %254 = call i32 (i8*, ...) @printf(i8* getelementptr inbounds ([3 x i8], [3 x i8]* @.str.1, i64 0, i64 0), i32 %253)
  br label %255

255:                                              ; preds = %248
  %256 = load i32, i32* %3, align 4
  %257 = add nsw i32 %256, -1
  store i32 %257, i32* %3, align 4
  br label %245

258:                                              ; preds = %245
  %259 = call i32 (i8*, ...) @printf(i8* getelementptr inbounds ([2 x i8], [2 x i8]* @.str.2, i64 0, i64 0))
  ret void
}